; Function Attrs: nounwind uwtable
define i32 @lv_obj_get_content_width(ptr noundef %0) local_unnamed_addr #0 {
  %2 = tail call ptr @lv_obj_get_style_prop(ptr noundef %0, i32 noundef 0, i8 noundef zeroext 18) #8
  %3 = ptrtoint ptr %2 to i64
  %.sroa.0.0.extract.trunc.i.i = trunc i64 %3 to i32
  %4 = tail call ptr @lv_obj_get_style_prop(ptr noundef %0, i32 noundef 0, i8 noundef zeroext 48) #8
  %5 = ptrtoint ptr %4 to i64
  %.sroa.0.0.extract.trunc.i9.i = trunc i64 %5 to i32
  %6 = tail call ptr @lv_obj_get_style_prop(ptr noundef %0, i32 noundef 0, i8 noundef zeroext 52) #8
  %7 = ptrtoint ptr %6 to i64
  %8 = and i64 %7, 4
  %.not.i = icmp eq i64 %8, 0
  %9 = select i1 %.not.i, i32 0, i32 %.sroa.0.0.extract.trunc.i9.i
  %10 = tail call ptr @lv_obj_get_style_prop(ptr noundef %0, i32 noundef 0, i8 noundef zeroext 19) #8
  %11 = ptrtoint ptr %10 to i64
  %.sroa.0.0.extract.trunc.i.i4 = trunc i64 %11 to i32
  %12 = tail call ptr @lv_obj_get_style_prop(ptr noundef %0, i32 noundef 0, i8 noundef zeroext 48) #8
  %13 = ptrtoint ptr %12 to i64
  %.sroa.0.0.extract.trunc.i9.i5 = trunc i64 %13 to i32
  %14 = tail call ptr @lv_obj_get_style_prop(ptr noundef %0, i32 noundef 0, i8 noundef zeroext 52) #8
  %15 = ptrtoint ptr %14 to i64
  %16 = and i64 %15, 8
  %.not.i6 = icmp eq i64 %16, 0
  %17 = select i1 %.not.i6, i32 0, i32 %.sroa.0.0.extract.trunc.i9.i5
  %18 = getelementptr inbounds nuw i8, ptr %0, i64 40
  %19 = tail call i32 @lv_area_get_width(ptr noundef nonnull %18) #8
  %20 = add i32 %.sroa.0.0.extract.trunc.i.i4, %.sroa.0.0.extract.trunc.i.i
  %21 = add i32 %20, %9
  %22 = add i32 %21, %17
  %23 = sub i32 %19, %22
  ret i32 %23
}